; Function Attrs: mustprogress nofree norecurse nosync nounwind willreturn memory(readwrite, inaccessiblemem: none) uwtable
define range(i32 0, 2) i32 @stbvox_get_uniform_info(ptr noundef writeonly captures(none) %0, i32 noundef %1) local_unnamed_addr #3 {
  %or.cond = icmp ugt i32 %1, 8
  br i1 %or.cond, label %6, label %3

3:                                                ; preds = %2
  %4 = zext nneg i32 %1 to i64
  %5 = getelementptr inbounds nuw [9 x %struct.stbvox_uniform_info], ptr @stbvox_uniforms, i64 0, i64 %4
  tail call void @llvm.memcpy.p0.p0.i64(ptr noundef nonnull align 8 dereferenceable(40) %0, ptr noundef nonnull align 8 dereferenceable(40) %5, i64 40, i1 false), !tbaa.struct !13
  br label %6

6:                                                ; preds = %2, %3
  %.0 = phi i32 [ 1, %3 ], [ 0, %2 ]
  ret i32 %.0
}